Certificate:
    Data:
        Version: 1 (0x0)
        Serial Number: 20 (0x14)
    Signature Algorithm: md5WithRSAEncryption
        Issuer: O=NOVA ROOT, L=Mountain View, ST=California, C=US
        Validity
            Not Before: Apr 25 13:50:25 2014 GMT
            Not After : Apr 25 13:50:25 2015 GMT
        Subject: C=US, ST=California, O=OpenStack, OU=NovaDev, CN=31c9f2c1bdd74cd3-5afc12526815460b-2014-04-25T13:50:25Z
        Subject Public Key Info:
            Public Key Algorithm: rsaEncryption
                Public-Key: (1024 bit)
                Modulus:
                    00:d0:48:e9:54:f4:38:5c:4e:86:aa:a6:fc:fd:d8:
                    a2:39:ed:a0:5f:e8:16:b6:18:ac:17:78:7f:82:42:
                    55:81:48:b1:85:66:ae:66:60:f5:8c:bb:fc:f9:6c:
                    79:92:90:89:90:0b:82:bd:9a:ff:48:2e:c0:41:27:
                    fc:53:2c:9c:c9:82:ff:8c:8c:40:f8:f5:68:62:0a:
                    4c:8e:b3:be:62:bd:f2:35:49:6c:e2:8d:47:cb:82:
                    85:ff:1c:ee:bc:53:43:85:cc:e9:e3:eb:8b:c5:c3:
                    f2:b6:61:67:73:86:ea:db:c1:8d:c9:2a:6a:90:f7:
                    e9:f2:4e:72:21:3e:cf:bd:55
                Exponent: 65537 (0x10001)
    Signature Algorithm: md5WithRSAEncryption
         51:e9:3d:45:89:44:67:8b:d9:85:45:83:20:a9:d4:6a:6a:a4:
         dc:6d:c9:34:6a:a5:05:7b:77:89:fe:22:c7:a2:dd:c5:b7:13:
         ca:da:55:7d:0f:29:73:d4:6b:38:fe:3a:d6:f6:94:6a:f1:3a:
         21:33:0a:46:ac:c6:71:cb:04:9b:c1:5e:3a:df:88:d0:b0:5c:
         dd:45:d2:13:93:d3:f3:5f:98:6c:15:9a:73:4f:32:60:4e:21:
         f4:85:bb:16:1a:21:83:23:ce:d4:5b:6a:21:d2:37:1d:66:f0:
         00:60:45:94:ee:ca:1b:ad:1b:46:79:59:c6:3a:a2:56:b4:5d:
         b0:2a
-----BEGIN CERTIFICATE-----
MIICRzCCAbACARQwDQYJKoZIhvcNAQEEBQAwTjESMBAGA1UEChMJTk9WQSBST09U
MRYwFAYDVQQHEw1Nb3VudGFpbiBWaWV3MRMwEQYDVQQIEwpDYWxpZm9ybmlhMQsw
CQYDVQQGEwJVUzAeFw0xNDA0MjUxMzUwMjVaFw0xNTA0MjUxMzUwMjVaMIGJMQsw
CQYDVQQGEwJVUzETMBEGA1UECAwKQ2FsaWZvcm5pYTESMBAGA1UECgwJT3BlblN0
YWNrMRAwDgYDVQQLDAdOb3ZhRGV2MT8wPQYDVQQDDDYzMWM5ZjJjMWJkZDc0Y2Qz
LTVhZmMxMjUyNjgxNTQ2MGItMjAxNC0wNC0yNVQxMzo1MDoyNVowgZ8wDQYJKoZI
hvcNAQEBBQADgY0AMIGJAoGBANBI6VT0OFxOhqqm/P3YojntoF/oFrYYrBd4f4JC
VYFIsYVmrmZg9Yy7/PlseZKQiZALgr2a/0guwEEn/FMsnMmC/4yMQPj1aGIKTI6z
vmK98jVJbOKNR8uChf8c7rxTQ4XM6ePri8XD8rZhZ3OG6tvBjckqapD36fJOciE+
z71VAgMBAAEwDQYJKoZIhvcNAQEEBQADgYEAUek9RYlEZ4vZhUWDIKnUamqk3G3J
NGqlBXt3if4ix6LdxbcTytpVfQ8pc9RrOP461vaUavE6ITMKRqzGccsEm8FeOt+I
0LBc3UXSE5PT81+YbBWac08yYE4h9IW7FhohgyPO1FtqIdI3HWbwAGBFlO7KG60b
RnlZxjqiVrRdsCo=
-----END CERTIFICATE-----
