Certificate:
    Data:
        Version: 1 (0x0)
        Serial Number: 18 (0x12)
    Signature Algorithm: md5WithRSAEncryption
        Issuer: O=NOVA ROOT, L=Mountain View, ST=California, C=US
        Validity
            Not Before: Apr 25 13:50:20 2014 GMT
            Not After : Apr 25 13:50:20 2015 GMT
        Subject: C=US, ST=California, O=OpenStack, OU=NovaDev, CN=862e07c009f74dc9-ffeb301578d54e2f-2014-04-25T13:50:20Z
        Subject Public Key Info:
            Public Key Algorithm: rsaEncryption
                Public-Key: (1024 bit)
                Modulus:
                    00:9c:1d:3b:97:e3:1c:9f:29:51:72:64:db:97:ba:
                    59:17:c9:eb:f5:ae:42:49:c1:20:c0:44:48:b0:d8:
                    09:48:78:d8:71:8a:15:00:2c:93:64:18:18:35:d7:
                    8c:43:37:2c:c5:aa:f6:51:0c:3d:fe:39:4f:ed:7b:
                    1d:28:67:4b:32:1d:d5:51:2f:c8:51:99:c8:64:12:
                    54:32:17:44:56:fa:63:10:6d:e1:eb:e4:40:85:4e:
                    f7:78:b4:ac:06:1b:ef:68:81:c3:66:21:26:64:dc:
                    9d:9b:9f:0e:b5:fc:ce:84:fd:29:30:4c:40:3f:3c:
                    06:a9:ee:70:fd:18:02:f0:f7
                Exponent: 65537 (0x10001)
    Signature Algorithm: md5WithRSAEncryption
         79:51:8b:b6:67:df:f7:93:5f:0f:78:4d:02:59:17:45:a2:b5:
         68:ef:e4:14:81:57:74:f3:12:24:71:77:98:3d:f8:ec:5e:ff:
         65:96:7a:d3:69:98:76:61:7d:d7:dd:51:40:70:7f:44:1d:99:
         47:63:c0:81:e2:0e:c3:c3:73:4b:a8:5e:a0:b0:11:0e:4f:80:
         d6:84:ef:c9:d5:0f:c9:6c:e1:c7:ae:1f:ba:9b:82:ed:16:e0:
         1b:d1:57:4c:80:c6:8d:46:7a:32:79:51:f6:88:3b:1e:07:e5:
         ab:98:b3:b4:ec:db:7a:f1:e4:86:62:e3:65:de:3a:bd:77:2a:
         c1:f5
-----BEGIN CERTIFICATE-----
MIICRzCCAbACARIwDQYJKoZIhvcNAQEEBQAwTjESMBAGA1UEChMJTk9WQSBST09U
MRYwFAYDVQQHEw1Nb3VudGFpbiBWaWV3MRMwEQYDVQQIEwpDYWxpZm9ybmlhMQsw
CQYDVQQGEwJVUzAeFw0xNDA0MjUxMzUwMjBaFw0xNTA0MjUxMzUwMjBaMIGJMQsw
CQYDVQQGEwJVUzETMBEGA1UECAwKQ2FsaWZvcm5pYTESMBAGA1UECgwJT3BlblN0
YWNrMRAwDgYDVQQLDAdOb3ZhRGV2MT8wPQYDVQQDDDY4NjJlMDdjMDA5Zjc0ZGM5
LWZmZWIzMDE1NzhkNTRlMmYtMjAxNC0wNC0yNVQxMzo1MDoyMFowgZ8wDQYJKoZI
hvcNAQEBBQADgY0AMIGJAoGBAJwdO5fjHJ8pUXJk25e6WRfJ6/WuQknBIMBESLDY
CUh42HGKFQAsk2QYGDXXjEM3LMWq9lEMPf45T+17HShnSzId1VEvyFGZyGQSVDIX
RFb6YxBt4evkQIVO93i0rAYb72iBw2YhJmTcnZufDrX8zoT9KTBMQD88BqnucP0Y
AvD3AgMBAAEwDQYJKoZIhvcNAQEEBQADgYEAeVGLtmff95NfD3hNAlkXRaK1aO/k
FIFXdPMSJHF3mD347F7/ZZZ602mYdmF9191RQHB/RB2ZR2PAgeIOw8NzS6heoLAR
Dk+A1oTvydUPyWzhx64fupuC7RbgG9FXTIDGjUZ6MnlR9og7Hgflq5iztOzbevHk
hmLjZd46vXcqwfU=
-----END CERTIFICATE-----
