Certificate:
    Data:
        Version: 1 (0x0)
        Serial Number: 22 (0x16)
    Signature Algorithm: md5WithRSAEncryption
        Issuer: O=NOVA ROOT, L=Mountain View, ST=California, C=US
        Validity
            Not Before: Apr 25 13:50:30 2014 GMT
            Not After : Apr 25 13:50:30 2015 GMT
        Subject: C=US, ST=California, O=OpenStack, OU=NovaDev, CN=b6695940237246c0-ffeb301578d54e2f-2014-04-25T13:50:30Z
        Subject Public Key Info:
            Public Key Algorithm: rsaEncryption
                Public-Key: (1024 bit)
                Modulus:
                    00:be:88:02:7e:8e:4b:a0:8b:95:dc:4f:26:0e:de:
                    5d:bb:85:cd:cf:3e:2a:f9:38:09:5f:7d:b8:7d:f5:
                    fa:b5:99:27:bf:f8:aa:eb:f8:e2:d5:9a:20:6f:02:
                    f3:34:1e:2d:01:5b:e0:f5:4b:e1:14:0a:54:b5:3a:
                    7f:e9:47:0b:49:ff:e5:5c:61:50:f6:c6:3c:f0:f4:
                    3c:c6:5a:d5:f4:a8:f4:5e:68:b0:88:39:7e:38:12:
                    60:09:87:af:77:c7:0b:b7:d2:14:fe:91:b2:5e:1d:
                    b0:ef:9a:19:3d:1f:c0:fa:31:e4:77:cf:2f:2a:79:
                    98:57:90:e0:16:8b:22:c3:cb
                Exponent: 65537 (0x10001)
    Signature Algorithm: md5WithRSAEncryption
         9a:69:ab:e6:36:72:d2:96:7d:88:4a:a3:32:c2:4f:5d:18:24:
         91:7c:95:47:36:56:73:4a:63:0b:25:ac:aa:47:3d:55:f8:e5:
         80:24:81:83:a3:77:1e:12:b8:83:4a:8d:5b:d6:40:56:ff:b1:
         b5:28:c6:01:03:54:cc:ae:45:a9:d1:7c:f2:81:d4:23:06:e8:
         8e:a9:af:67:a4:a8:61:6e:55:ed:ef:55:3e:c9:93:7f:2c:6a:
         ca:de:28:65:eb:30:82:2c:25:d9:9f:e8:bc:36:8c:85:0e:bb:
         35:77:e4:72:8e:69:71:4d:6c:e3:18:11:f2:48:23:cd:52:ec:
         06:2f
-----BEGIN CERTIFICATE-----
MIICRzCCAbACARYwDQYJKoZIhvcNAQEEBQAwTjESMBAGA1UEChMJTk9WQSBST09U
MRYwFAYDVQQHEw1Nb3VudGFpbiBWaWV3MRMwEQYDVQQIEwpDYWxpZm9ybmlhMQsw
CQYDVQQGEwJVUzAeFw0xNDA0MjUxMzUwMzBaFw0xNTA0MjUxMzUwMzBaMIGJMQsw
CQYDVQQGEwJVUzETMBEGA1UECAwKQ2FsaWZvcm5pYTESMBAGA1UECgwJT3BlblN0
YWNrMRAwDgYDVQQLDAdOb3ZhRGV2MT8wPQYDVQQDDDZiNjY5NTk0MDIzNzI0NmMw
LWZmZWIzMDE1NzhkNTRlMmYtMjAxNC0wNC0yNVQxMzo1MDozMFowgZ8wDQYJKoZI
hvcNAQEBBQADgY0AMIGJAoGBAL6IAn6OS6CLldxPJg7eXbuFzc8+Kvk4CV99uH31
+rWZJ7/4quv44tWaIG8C8zQeLQFb4PVL4RQKVLU6f+lHC0n/5VxhUPbGPPD0PMZa
1fSo9F5osIg5fjgSYAmHr3fHC7fSFP6Rsl4dsO+aGT0fwPox5HfPLyp5mFeQ4BaL
IsPLAgMBAAEwDQYJKoZIhvcNAQEEBQADgYEAmmmr5jZy0pZ9iEqjMsJPXRgkkXyV
RzZWc0pjCyWsqkc9VfjlgCSBg6N3HhK4g0qNW9ZAVv+xtSjGAQNUzK5FqdF88oHU
IwbojqmvZ6SoYW5V7e9VPsmTfyxqyt4oZeswgiwl2Z/ovDaMhQ67NXfkco5pcU1s
4xgR8kgjzVLsBi8=
-----END CERTIFICATE-----
