Certificate:
    Data:
        Version: 1 (0x0)
        Serial Number: 26 (0x1a)
    Signature Algorithm: md5WithRSAEncryption
        Issuer: O=NOVA ROOT, L=Mountain View, ST=California, C=US
        Validity
            Not Before: Apr 25 13:50:36 2014 GMT
            Not After : Apr 25 13:50:36 2015 GMT
        Subject: C=US, ST=California, O=OpenStack, OU=NovaDev, CN=b6695940237246c0-c24b95d777f940d1-2014-04-25T13:50:36Z
        Subject Public Key Info:
            Public Key Algorithm: rsaEncryption
                Public-Key: (1024 bit)
                Modulus:
                    00:ab:f0:ff:82:46:f7:01:4e:64:3a:40:e2:86:95:
                    46:51:d7:7a:66:14:53:bc:a6:b2:3b:0b:12:ab:6d:
                    a5:f7:5b:28:ee:c1:72:8f:89:7f:bf:08:b4:b9:16:
                    b5:21:d5:5c:d5:03:5c:c6:ce:c6:a9:b0:93:a3:9e:
                    15:81:88:2a:6b:74:39:63:63:d6:cb:95:f4:53:23:
                    21:a2:e7:48:2f:dd:54:10:30:f9:9c:21:78:8c:5f:
                    55:a3:b0:bc:12:4f:fc:a3:fa:dd:d4:ac:89:af:e4:
                    6f:30:f6:da:38:fd:14:28:41:b3:0d:d3:aa:23:11:
                    0b:e2:1f:8f:6c:21:9d:3f:b3
                Exponent: 65537 (0x10001)
    Signature Algorithm: md5WithRSAEncryption
         17:ec:6e:5c:ff:19:5f:32:22:41:47:8f:fd:68:bb:f7:a8:23:
         76:28:88:60:44:e5:b5:77:62:f7:63:31:a4:c9:db:3b:6c:37:
         a4:42:1a:cc:69:63:3f:0b:b4:ef:08:d5:07:22:11:23:cb:68:
         72:3d:40:e2:ac:8d:ae:fe:99:8b:ec:05:ae:48:61:e4:af:77:
         45:4a:11:f9:c6:62:e8:da:d8:57:cc:55:f7:80:08:82:7d:1d:
         bf:0f:c4:02:5a:c8:d9:d2:43:a6:3f:4b:64:1b:70:30:14:a9:
         e4:66:92:3b:8b:86:90:0f:9c:ed:06:cb:88:fd:2c:ff:e2:a5:
         da:43
-----BEGIN CERTIFICATE-----
MIICRzCCAbACARowDQYJKoZIhvcNAQEEBQAwTjESMBAGA1UEChMJTk9WQSBST09U
MRYwFAYDVQQHEw1Nb3VudGFpbiBWaWV3MRMwEQYDVQQIEwpDYWxpZm9ybmlhMQsw
CQYDVQQGEwJVUzAeFw0xNDA0MjUxMzUwMzZaFw0xNTA0MjUxMzUwMzZaMIGJMQsw
CQYDVQQGEwJVUzETMBEGA1UECAwKQ2FsaWZvcm5pYTESMBAGA1UECgwJT3BlblN0
YWNrMRAwDgYDVQQLDAdOb3ZhRGV2MT8wPQYDVQQDDDZiNjY5NTk0MDIzNzI0NmMw
LWMyNGI5NWQ3NzdmOTQwZDEtMjAxNC0wNC0yNVQxMzo1MDozNlowgZ8wDQYJKoZI
hvcNAQEBBQADgY0AMIGJAoGBAKvw/4JG9wFOZDpA4oaVRlHXemYUU7ymsjsLEqtt
pfdbKO7Bco+Jf78ItLkWtSHVXNUDXMbOxqmwk6OeFYGIKmt0OWNj1suV9FMjIaLn
SC/dVBAw+ZwheIxfVaOwvBJP/KP63dSsia/kbzD22jj9FChBsw3TqiMRC+Ifj2wh
nT+zAgMBAAEwDQYJKoZIhvcNAQEEBQADgYEAF+xuXP8ZXzIiQUeP/Wi796gjdiiI
YETltXdi92MxpMnbO2w3pEIazGljPwu07wjVByIRI8tocj1A4qyNrv6Zi+wFrkhh
5K93RUoR+cZi6NrYV8xV94AIgn0dvw/EAlrI2dJDpj9LZBtwMBSp5GaSO4uGkA+c
7QbLiP0s/+Kl2kM=
-----END CERTIFICATE-----
