Certificate:
    Data:
        Version: 1 (0x0)
        Serial Number: 27 (0x1b)
    Signature Algorithm: md5WithRSAEncryption
        Issuer: O=NOVA ROOT, L=Mountain View, ST=California, C=US
        Validity
            Not Before: Apr 25 13:50:40 2014 GMT
            Not After : Apr 25 13:50:40 2015 GMT
        Subject: C=US, ST=California, O=OpenStack, OU=NovaDev, CN=d10dcdf6bb4248b9-c24b95d777f940d1-2014-04-25T13:50:40Z
        Subject Public Key Info:
            Public Key Algorithm: rsaEncryption
                Public-Key: (1024 bit)
                Modulus:
                    00:c7:09:95:b2:28:44:9b:2a:12:39:21:61:9e:3e:
                    bd:52:cd:c7:25:23:75:da:17:d7:50:6c:56:dc:f6:
                    98:cc:12:4d:bd:77:13:6b:d0:23:18:ab:85:1c:6f:
                    9c:2e:9f:57:0f:1e:06:33:9c:01:71:a5:4b:c2:e8:
                    53:88:3f:2b:f6:4a:b5:f8:33:b0:f8:44:01:f4:12:
                    68:5f:e7:69:ec:9f:46:c6:4a:c2:5e:10:77:90:37:
                    67:71:c3:c2:7e:07:6f:c6:89:46:c7:9c:54:63:e4:
                    8b:24:13:cc:21:45:fb:36:52:5d:89:da:80:79:cd:
                    d3:78:27:65:91:4f:52:5a:af
                Exponent: 65537 (0x10001)
    Signature Algorithm: md5WithRSAEncryption
         4d:b6:5a:a7:63:d5:52:94:50:44:f6:00:e9:b9:bc:15:1f:b4:
         9d:a6:c7:e1:c5:57:19:b9:c9:20:56:6d:e7:6a:1b:a4:bf:e8:
         a2:fc:74:9e:9b:68:d0:ff:70:31:f4:b0:d8:af:f8:af:8a:4d:
         63:d9:ea:b4:c9:c3:fd:d0:a6:ff:54:8a:32:bf:81:13:5b:fe:
         f0:34:9d:d3:d5:e8:10:17:a1:91:c6:e5:4d:b2:4e:3b:8c:d9:
         a3:27:a7:bd:f1:54:8f:90:21:1b:a1:ca:58:b8:8e:a8:70:cd:
         12:af:2c:4e:53:81:b2:eb:c5:ff:58:73:fc:ca:8e:5e:02:4d:
         d2:80
-----BEGIN CERTIFICATE-----
MIICRzCCAbACARswDQYJKoZIhvcNAQEEBQAwTjESMBAGA1UEChMJTk9WQSBST09U
MRYwFAYDVQQHEw1Nb3VudGFpbiBWaWV3MRMwEQYDVQQIEwpDYWxpZm9ybmlhMQsw
CQYDVQQGEwJVUzAeFw0xNDA0MjUxMzUwNDBaFw0xNTA0MjUxMzUwNDBaMIGJMQsw
CQYDVQQGEwJVUzETMBEGA1UECAwKQ2FsaWZvcm5pYTESMBAGA1UECgwJT3BlblN0
YWNrMRAwDgYDVQQLDAdOb3ZhRGV2MT8wPQYDVQQDDDZkMTBkY2RmNmJiNDI0OGI5
LWMyNGI5NWQ3NzdmOTQwZDEtMjAxNC0wNC0yNVQxMzo1MDo0MFowgZ8wDQYJKoZI
hvcNAQEBBQADgY0AMIGJAoGBAMcJlbIoRJsqEjkhYZ4+vVLNxyUjddoX11BsVtz2
mMwSTb13E2vQIxirhRxvnC6fVw8eBjOcAXGlS8LoU4g/K/ZKtfgzsPhEAfQSaF/n
aeyfRsZKwl4Qd5A3Z3HDwn4Hb8aJRsecVGPkiyQTzCFF+zZSXYnagHnN03gnZZFP
UlqvAgMBAAEwDQYJKoZIhvcNAQEEBQADgYEATbZap2PVUpRQRPYA6bm8FR+0nabH
4cVXGbnJIFZt52obpL/oovx0npto0P9wMfSw2K/4r4pNY9nqtMnD/dCm/1SKMr+B
E1v+8DSd09XoEBehkcblTbJOO4zZoyenvfFUj5AhG6HKWLiOqHDNEq8sTlOBsuvF
/1hz/MqOXgJN0oA=
-----END CERTIFICATE-----
